
led_on_c_elf:     file format elf32-littlearm

Disassembly of section .text:

00000000 <_start>:
   0:	e3a00453 	mov	r0, #1392508928	; 0x53000000
   4:	e3a01000 	mov	r1, #0	; 0x0
   8:	e5801000 	str	r1, [r0]
   c:	e3a0da01 	mov	sp, #4096	; 0x1000
  10:	eb000000 	bl	18 <main>

00000014 <halt_loop>:
  14:	eafffffe 	b	14 <halt_loop>

00000018 <main>:
  18:	e1a0c00d 	mov	ip, sp
  1c:	e92dd800 	stmdb	sp!, {fp, ip, lr, pc}
  20:	e24cb004 	sub	fp, ip, #4	; 0x4
  24:	e24dd004 	sub	sp, sp, #4	; 0x4
  28:	e3a02456 	mov	r2, #1442840576	; 0x56000000
  2c:	e2822050 	add	r2, r2, #80	; 0x50
  30:	e3a03456 	mov	r3, #1442840576	; 0x56000000
  34:	e2833050 	add	r3, r3, #80	; 0x50
  38:	e5933000 	ldr	r3, [r3]
  3c:	e3c330c0 	bic	r3, r3, #192	; 0xc0
  40:	e5823000 	str	r3, [r2]
  44:	e3a02456 	mov	r2, #1442840576	; 0x56000000
  48:	e2822050 	add	r2, r2, #80	; 0x50
  4c:	e3a03456 	mov	r3, #1442840576	; 0x56000000
  50:	e2833050 	add	r3, r3, #80	; 0x50
  54:	e5933000 	ldr	r3, [r3]
  58:	e3833040 	orr	r3, r3, #64	; 0x40
  5c:	e5823000 	str	r3, [r2]
  60:	e3a02456 	mov	r2, #1442840576	; 0x56000000
  64:	e2822054 	add	r2, r2, #84	; 0x54
  68:	e3a03456 	mov	r3, #1442840576	; 0x56000000
  6c:	e2833054 	add	r3, r3, #84	; 0x54
  70:	e5933000 	ldr	r3, [r3]
  74:	e3c33008 	bic	r3, r3, #8	; 0x8
  78:	e5823000 	str	r3, [r2]
  7c:	e3a03000 	mov	r3, #0	; 0x0
  80:	e50b3010 	str	r3, [fp, #-16]
  84:	e51b2010 	ldr	r2, [fp, #-16]
  88:	e3a03c27 	mov	r3, #9984	; 0x2700
  8c:	e283300f 	add	r3, r3, #15	; 0xf
  90:	e1520003 	cmp	r2, r3
  94:	ca000003 	bgt	a8 <main+0x90>
  98:	e51b3010 	ldr	r3, [fp, #-16]
  9c:	e2833001 	add	r3, r3, #1	; 0x1
  a0:	e50b3010 	str	r3, [fp, #-16]
  a4:	eafffff6 	b	84 <main+0x6c>
  a8:	e3a02456 	mov	r2, #1442840576	; 0x56000000
  ac:	e2822054 	add	r2, r2, #84	; 0x54
  b0:	e3a03456 	mov	r3, #1442840576	; 0x56000000
  b4:	e2833054 	add	r3, r3, #84	; 0x54
  b8:	e5933000 	ldr	r3, [r3]
  bc:	e3833008 	orr	r3, r3, #8	; 0x8
  c0:	e5823000 	str	r3, [r2]
  c4:	e3a02456 	mov	r2, #1442840576	; 0x56000000
  c8:	e2822050 	add	r2, r2, #80	; 0x50
  cc:	e3a03456 	mov	r3, #1442840576	; 0x56000000
  d0:	e2833050 	add	r3, r3, #80	; 0x50
  d4:	e5933000 	ldr	r3, [r3]
  d8:	e3c33b01 	bic	r3, r3, #1024	; 0x400
  dc:	e5823000 	str	r3, [r2]
  e0:	e3a02456 	mov	r2, #1442840576	; 0x56000000
  e4:	e2822050 	add	r2, r2, #80	; 0x50
  e8:	e3a03456 	mov	r3, #1442840576	; 0x56000000
  ec:	e2833050 	add	r3, r3, #80	; 0x50
  f0:	e5933000 	ldr	r3, [r3]
  f4:	e3833c01 	orr	r3, r3, #256	; 0x100
  f8:	e5823000 	str	r3, [r2]
  fc:	e3a02456 	mov	r2, #1442840576	; 0x56000000
 100:	e2822054 	add	r2, r2, #84	; 0x54
 104:	e3a03456 	mov	r3, #1442840576	; 0x56000000
 108:	e2833054 	add	r3, r3, #84	; 0x54
 10c:	e5933000 	ldr	r3, [r3]
 110:	e3c33010 	bic	r3, r3, #16	; 0x10
 114:	e5823000 	str	r3, [r2]
 118:	e3a03000 	mov	r3, #0	; 0x0
 11c:	e50b3010 	str	r3, [fp, #-16]
 120:	e51b2010 	ldr	r2, [fp, #-16]
 124:	e3a03c27 	mov	r3, #9984	; 0x2700
 128:	e283300f 	add	r3, r3, #15	; 0xf
 12c:	e1520003 	cmp	r2, r3
 130:	ca000003 	bgt	144 <main+0x12c>
 134:	e51b3010 	ldr	r3, [fp, #-16]
 138:	e2833001 	add	r3, r3, #1	; 0x1
 13c:	e50b3010 	str	r3, [fp, #-16]
 140:	eafffff6 	b	120 <main+0x108>
 144:	e3a02456 	mov	r2, #1442840576	; 0x56000000
 148:	e2822054 	add	r2, r2, #84	; 0x54
 14c:	e3a03456 	mov	r3, #1442840576	; 0x56000000
 150:	e2833054 	add	r3, r3, #84	; 0x54
 154:	e5933000 	ldr	r3, [r3]
 158:	e3833010 	orr	r3, r3, #16	; 0x10
 15c:	e5823000 	str	r3, [r2]
 160:	e3a02456 	mov	r2, #1442840576	; 0x56000000
 164:	e2822050 	add	r2, r2, #80	; 0x50
 168:	e3a03456 	mov	r3, #1442840576	; 0x56000000
 16c:	e2833050 	add	r3, r3, #80	; 0x50
 170:	e5933000 	ldr	r3, [r3]
 174:	e3c33b03 	bic	r3, r3, #3072	; 0xc00
 178:	e5823000 	str	r3, [r2]
 17c:	e3a02456 	mov	r2, #1442840576	; 0x56000000
 180:	e2822050 	add	r2, r2, #80	; 0x50
 184:	e3a03456 	mov	r3, #1442840576	; 0x56000000
 188:	e2833050 	add	r3, r3, #80	; 0x50
 18c:	e5933000 	ldr	r3, [r3]
 190:	e3833b01 	orr	r3, r3, #1024	; 0x400
 194:	e5823000 	str	r3, [r2]
 198:	e3a02456 	mov	r2, #1442840576	; 0x56000000
 19c:	e2822054 	add	r2, r2, #84	; 0x54
 1a0:	e3a03456 	mov	r3, #1442840576	; 0x56000000
 1a4:	e2833054 	add	r3, r3, #84	; 0x54
 1a8:	e5933000 	ldr	r3, [r3]
 1ac:	e3c33020 	bic	r3, r3, #32	; 0x20
 1b0:	e5823000 	str	r3, [r2]
 1b4:	e3a03000 	mov	r3, #0	; 0x0
 1b8:	e50b3010 	str	r3, [fp, #-16]
 1bc:	e51b2010 	ldr	r2, [fp, #-16]
 1c0:	e3a03c27 	mov	r3, #9984	; 0x2700
 1c4:	e283300f 	add	r3, r3, #15	; 0xf
 1c8:	e1520003 	cmp	r2, r3
 1cc:	ca000003 	bgt	1e0 <main+0x1c8>
 1d0:	e51b3010 	ldr	r3, [fp, #-16]
 1d4:	e2833001 	add	r3, r3, #1	; 0x1
 1d8:	e50b3010 	str	r3, [fp, #-16]
 1dc:	eafffff6 	b	1bc <main+0x1a4>
 1e0:	e3a02456 	mov	r2, #1442840576	; 0x56000000
 1e4:	e2822054 	add	r2, r2, #84	; 0x54
 1e8:	e3a03456 	mov	r3, #1442840576	; 0x56000000
 1ec:	e2833054 	add	r3, r3, #84	; 0x54
 1f0:	e5933000 	ldr	r3, [r3]
 1f4:	e3833020 	orr	r3, r3, #32	; 0x20
 1f8:	e5823000 	str	r3, [r2]
 1fc:	e3a02456 	mov	r2, #1442840576	; 0x56000000
 200:	e2822050 	add	r2, r2, #80	; 0x50
 204:	e3a03456 	mov	r3, #1442840576	; 0x56000000
 208:	e2833050 	add	r3, r3, #80	; 0x50
 20c:	e5933000 	ldr	r3, [r3]
 210:	e3c33901 	bic	r3, r3, #16384	; 0x4000
 214:	e5823000 	str	r3, [r2]
 218:	e3a02456 	mov	r2, #1442840576	; 0x56000000
 21c:	e2822050 	add	r2, r2, #80	; 0x50
 220:	e3a03456 	mov	r3, #1442840576	; 0x56000000
 224:	e2833050 	add	r3, r3, #80	; 0x50
 228:	e5933000 	ldr	r3, [r3]
 22c:	e3833a01 	orr	r3, r3, #4096	; 0x1000
 230:	e5823000 	str	r3, [r2]
 234:	e3a02456 	mov	r2, #1442840576	; 0x56000000
 238:	e2822054 	add	r2, r2, #84	; 0x54
 23c:	e3a03456 	mov	r3, #1442840576	; 0x56000000
 240:	e2833054 	add	r3, r3, #84	; 0x54
 244:	e5933000 	ldr	r3, [r3]
 248:	e3c33040 	bic	r3, r3, #64	; 0x40
 24c:	e5823000 	str	r3, [r2]
 250:	e3a03000 	mov	r3, #0	; 0x0
 254:	e50b3010 	str	r3, [fp, #-16]
 258:	e51b2010 	ldr	r2, [fp, #-16]
 25c:	e3a03c27 	mov	r3, #9984	; 0x2700
 260:	e283300f 	add	r3, r3, #15	; 0xf
 264:	e1520003 	cmp	r2, r3
 268:	ca000003 	bgt	27c <main+0x264>
 26c:	e51b3010 	ldr	r3, [fp, #-16]
 270:	e2833001 	add	r3, r3, #1	; 0x1
 274:	e50b3010 	str	r3, [fp, #-16]
 278:	eafffff6 	b	258 <main+0x240>
 27c:	e3a02456 	mov	r2, #1442840576	; 0x56000000
 280:	e2822054 	add	r2, r2, #84	; 0x54
 284:	e3a03456 	mov	r3, #1442840576	; 0x56000000
 288:	e2833054 	add	r3, r3, #84	; 0x54
 28c:	e5933000 	ldr	r3, [r3]
 290:	e3833040 	orr	r3, r3, #64	; 0x40
 294:	e5823000 	str	r3, [r2]
 298:	eaffff62 	b	28 <main+0x10>